target datalayout = "e-m:e-p270:32:32-p271:32:32-p272:64:64-i64:64-i128:128-f80:128-n8:16:32:64-S128"
target triple = "x86_64-pc-linux-gnu"

%"class.icu_77::UnicodeString" = type { %"class.icu_77::Replaceable", %"union.icu_77::UnicodeString::StackBufferOrFields" }
%"class.icu_77::Replaceable" = type { %"class.icu_77::UObject" }
%"class.icu_77::UObject" = type { ptr }
%"union.icu_77::UnicodeString::StackBufferOrFields" = type { %struct.anon.0, [32 x i8] }
%struct.anon.0 = type { i16, i32, i32, ptr }
%"struct.icu_77::CollationData" = type <{ ptr, ptr, ptr, ptr, ptr, ptr, ptr, i32, i32, i32, i32, ptr, ptr, ptr, i32, i32, ptr, ptr, i32, [4 x i8], ptr, i32, [4 x i8] }>
%"class.icu_77::CollationDataBuilder" = type { %"class.icu_77::UObject", ptr, ptr, ptr, ptr, %"class.icu_77::UVector32", %"class.icu_77::UVector64", %"class.icu_77::UVector", %"class.icu_77::UnicodeSet", %"class.icu_77::UnicodeString", i32, [4 x i8], %"class.icu_77::UnicodeSet", i8, i8, i8, ptr, ptr }
%"class.icu_77::UVector32" = type { %"class.icu_77::UObject", i32, i32, i32, ptr }
%"class.icu_77::UVector64" = type { %"class.icu_77::UObject", i32, i32, i32, ptr }
%"class.icu_77::UVector" = type { %"class.icu_77::UObject", i32, i32, ptr, ptr, ptr }
%"class.icu_77::UnicodeSet" = type <{ %"class.icu_77::UnicodeFilter", ptr, i32, i32, i8, [7 x i8], ptr, ptr, i32, [4 x i8], ptr, i32, [4 x i8], ptr, ptr, [25 x i32], [4 x i8] }>
%"class.icu_77::UnicodeFilter" = type { %"class.icu_77::UnicodeFunctor", %"class.icu_77::UnicodeMatcher" }
%"class.icu_77::UnicodeFunctor" = type { %"class.icu_77::UObject" }
%"class.icu_77::UnicodeMatcher" = type { ptr }

; Function Attrs: mustprogress uwtable
define void @_ZN6icu_7720CollationDataBuilder5buildERNS_13CollationDataER10UErrorCode(ptr noundef nonnull align 8 dereferenceable(640) %0, ptr noundef nonnull align 8 dereferenceable(140) %1, ptr noundef nonnull align 4 dereferenceable(4) %2) unnamed_addr #4 align 2 {
  %4 = alloca ptr, align 8
  %5 = alloca ptr, align 8
  %6 = alloca ptr, align 8
  store ptr %0, ptr %4, align 8, !tbaa !13
  store ptr %1, ptr %5, align 8, !tbaa !63
  store ptr %2, ptr %6, align 8, !tbaa !8
  %7 = load ptr, ptr %4, align 8
  %8 = load ptr, ptr %5, align 8, !tbaa !63
  %9 = load ptr, ptr %6, align 8, !tbaa !8
  call void @_ZN6icu_7720CollationDataBuilder13buildMappingsERNS_13CollationDataER10UErrorCode(ptr noundef nonnull align 8 dereferenceable(640) %7, ptr noundef nonnull align 8 dereferenceable(140) %8, ptr noundef nonnull align 4 dereferenceable(4) %9)
  %10 = getelementptr inbounds nuw %"class.icu_77::CollationDataBuilder", ptr %7, i32 0, i32 2
  %11 = load ptr, ptr %10, align 8, !tbaa !55
  %12 = icmp ne ptr %11, null
  br i1 %12, label %13, label %50

13:                                               ; preds = %3
  %14 = getelementptr inbounds nuw %"class.icu_77::CollationDataBuilder", ptr %7, i32 0, i32 2
  %15 = load ptr, ptr %14, align 8, !tbaa !55
  %16 = getelementptr inbounds nuw %"struct.icu_77::CollationData", ptr %15, i32 0, i32 7
  %17 = load i32, ptr %16, align 8, !tbaa !78
  %18 = load ptr, ptr %5, align 8, !tbaa !63
  %19 = getelementptr inbounds nuw %"struct.icu_77::CollationData", ptr %18, i32 0, i32 7
  store i32 %17, ptr %19, align 8, !tbaa !78
  %20 = getelementptr inbounds nuw %"class.icu_77::CollationDataBuilder", ptr %7, i32 0, i32 2
  %21 = load ptr, ptr %20, align 8, !tbaa !55
  %22 = getelementptr inbounds nuw %"struct.icu_77::CollationData", ptr %21, i32 0, i32 11
  %23 = load ptr, ptr %22, align 8, !tbaa !82
  %24 = load ptr, ptr %5, align 8, !tbaa !63
  %25 = getelementptr inbounds nuw %"struct.icu_77::CollationData", ptr %24, i32 0, i32 11
  store ptr %23, ptr %25, align 8, !tbaa !82
  %26 = getelementptr inbounds nuw %"class.icu_77::CollationDataBuilder", ptr %7, i32 0, i32 2
  %27 = load ptr, ptr %26, align 8, !tbaa !55
  %28 = getelementptr inbounds nuw %"struct.icu_77::CollationData", ptr %27, i32 0, i32 15
  %29 = load i32, ptr %28, align 4, !tbaa !86
  %30 = load ptr, ptr %5, align 8, !tbaa !63
  %31 = getelementptr inbounds nuw %"struct.icu_77::CollationData", ptr %30, i32 0, i32 15
  store i32 %29, ptr %31, align 4, !tbaa !86
  %32 = getelementptr inbounds nuw %"class.icu_77::CollationDataBuilder", ptr %7, i32 0, i32 2
  %33 = load ptr, ptr %32, align 8, !tbaa !55
  %34 = getelementptr inbounds nuw %"struct.icu_77::CollationData", ptr %33, i32 0, i32 16
  %35 = load ptr, ptr %34, align 8, !tbaa !87
  %36 = load ptr, ptr %5, align 8, !tbaa !63
  %37 = getelementptr inbounds nuw %"struct.icu_77::CollationData", ptr %36, i32 0, i32 16
  store ptr %35, ptr %37, align 8, !tbaa !87
  %38 = getelementptr inbounds nuw %"class.icu_77::CollationDataBuilder", ptr %7, i32 0, i32 2
  %39 = load ptr, ptr %38, align 8, !tbaa !55
  %40 = getelementptr inbounds nuw %"struct.icu_77::CollationData", ptr %39, i32 0, i32 17
  %41 = load ptr, ptr %40, align 8, !tbaa !88
  %42 = load ptr, ptr %5, align 8, !tbaa !63
  %43 = getelementptr inbounds nuw %"struct.icu_77::CollationData", ptr %42, i32 0, i32 17
  store ptr %41, ptr %43, align 8, !tbaa !88
  %44 = getelementptr inbounds nuw %"class.icu_77::CollationDataBuilder", ptr %7, i32 0, i32 2
  %45 = load ptr, ptr %44, align 8, !tbaa !55
  %46 = getelementptr inbounds nuw %"struct.icu_77::CollationData", ptr %45, i32 0, i32 18
  %47 = load i32, ptr %46, align 8, !tbaa !89
  %48 = load ptr, ptr %5, align 8, !tbaa !63
  %49 = getelementptr inbounds nuw %"struct.icu_77::CollationData", ptr %48, i32 0, i32 18
  store i32 %47, ptr %49, align 8, !tbaa !89
  br label %50

50:                                               ; preds = %13, %3
  %51 = load ptr, ptr %5, align 8, !tbaa !63
  %52 = load ptr, ptr %6, align 8, !tbaa !8
  call void @_ZN6icu_7720CollationDataBuilder19buildFastLatinTableERNS_13CollationDataER10UErrorCode(ptr noundef nonnull align 8 dereferenceable(640) %7, ptr noundef nonnull align 8 dereferenceable(140) %51, ptr noundef nonnull align 4 dereferenceable(4) %52)
  ret void
}