; Function Attrs: mustprogress uwtable
define void @_ZN6icu_7720CollationDataBuilder5buildERNS_13CollationDataER10UErrorCode(ptr noundef nonnull align 8 dereferenceable(640) %0, ptr noundef nonnull align 8 dereferenceable(140) %1, ptr noundef nonnull align 4 dereferenceable(4) %2) unnamed_addr #6 align 2 {
  tail call void @_ZN6icu_7720CollationDataBuilder13buildMappingsERNS_13CollationDataER10UErrorCode(ptr noundef nonnull align 8 dereferenceable(640) %0, ptr noundef nonnull align 8 dereferenceable(140) %1, ptr noundef nonnull align 4 dereferenceable(4) %2)
  %4 = getelementptr inbounds nuw i8, ptr %0, i64 16
  %5 = load ptr, ptr %4, align 8, !tbaa !63
  %.not = icmp eq ptr %5, null
  br i1 %.not, label %25, label %6

6:                                                ; preds = %3
  %7 = getelementptr inbounds nuw i8, ptr %5, i64 56
  %8 = load i32, ptr %7, align 8, !tbaa !56
  %9 = getelementptr inbounds nuw i8, ptr %1, i64 56
  store i32 %8, ptr %9, align 8, !tbaa !56
  %10 = getelementptr inbounds nuw i8, ptr %5, i64 72
  %11 = load ptr, ptr %10, align 8, !tbaa !129
  %12 = getelementptr inbounds nuw i8, ptr %1, i64 72
  store ptr %11, ptr %12, align 8, !tbaa !129
  %13 = getelementptr inbounds nuw i8, ptr %5, i64 100
  %14 = load i32, ptr %13, align 4, !tbaa !166
  %15 = getelementptr inbounds nuw i8, ptr %1, i64 100
  store i32 %14, ptr %15, align 4, !tbaa !166
  %16 = getelementptr inbounds nuw i8, ptr %5, i64 104
  %17 = load ptr, ptr %16, align 8, !tbaa !167
  %18 = getelementptr inbounds nuw i8, ptr %1, i64 104
  store ptr %17, ptr %18, align 8, !tbaa !167
  %19 = getelementptr inbounds nuw i8, ptr %5, i64 112
  %20 = load ptr, ptr %19, align 8, !tbaa !168
  %21 = getelementptr inbounds nuw i8, ptr %1, i64 112
  store ptr %20, ptr %21, align 8, !tbaa !168
  %22 = getelementptr inbounds nuw i8, ptr %5, i64 120
  %23 = load i32, ptr %22, align 8, !tbaa !169
  %24 = getelementptr inbounds nuw i8, ptr %1, i64 120
  store i32 %23, ptr %24, align 8, !tbaa !169
  br label %25

25:                                               ; preds = %6, %3
  tail call void @_ZN6icu_7720CollationDataBuilder19buildFastLatinTableERNS_13CollationDataER10UErrorCode(ptr noundef nonnull align 8 dereferenceable(640) %0, ptr noundef nonnull align 8 dereferenceable(140) %1, ptr noundef nonnull align 4 dereferenceable(4) %2)
  ret void
}